target datalayout = "e-m:e-p270:32:32-p271:32:32-p272:64:64-i64:64-i128:128-f80:128-n8:16:32:64-S128"
target triple = "x86_64-pc-linux-gnu"

%"class.clang::SourceLocation" = type { i32 }
%"class.(anonymous namespace)::OMPClauseProfiler" = type { ptr }
%"class.clang::OMPClause" = type { %"class.clang::SourceLocation", %"class.clang::SourceLocation", i32 }
%"struct.clang::OMPUsesAllocatorsClause::Data" = type { ptr, ptr, %"class.clang::SourceLocation", %"class.clang::SourceLocation" }
%"class.clang::OMPUsesAllocatorsClause" = type { %"class.clang::OMPClause", %"class.clang::SourceLocation", i32, [4 x i8] }

; Function Attrs: mustprogress nounwind uwtable
define linkonce_odr hidden noundef i32 @_ZNK5clang23OMPUsesAllocatorsClause21getNumberOfAllocatorsEv(ptr noundef nonnull align 8 dereferenceable(24) %0) #0 comdat align 2 {
  %2 = alloca ptr, align 8
  store ptr %0, ptr %2, align 8
  %3 = load ptr, ptr %2, align 8
  %4 = getelementptr inbounds nuw %"class.clang::OMPUsesAllocatorsClause", ptr %3, i32 0, i32 2
  %5 = load i32, ptr %4, align 8
  ret i32 %5
}

; Function Attrs: mustprogress nounwind uwtable
define internal void @_ZN12_GLOBAL__N_117OMPClauseProfiler28VisitOMPUsesAllocatorsClauseEPKN5clang23OMPUsesAllocatorsClauseE(ptr noundef nonnull align 8 dereferenceable(8) %0, ptr noundef %1) #0 align 2 {
  %3 = alloca ptr, align 8
  %4 = alloca ptr, align 8
  %5 = alloca i32, align 4
  %6 = alloca i32, align 4
  %7 = alloca %"struct.clang::OMPUsesAllocatorsClause::Data", align 8
  store ptr %0, ptr %3, align 8
  store ptr %1, ptr %4, align 8
  %8 = load ptr, ptr %3, align 8
  store i32 0, ptr %5, align 4
  %9 = load ptr, ptr %4, align 8
  %10 = call noundef i32 @_ZNK5clang23OMPUsesAllocatorsClause21getNumberOfAllocatorsEv(ptr noundef nonnull align 8 dereferenceable(24) %9)
  store i32 %10, ptr %6, align 4
  br label %11

11:                                               ; preds = %31, %2
  %12 = load i32, ptr %5, align 4
  %13 = load i32, ptr %6, align 4
  %14 = icmp ult i32 %12, %13
  br i1 %14, label %15, label %34

15:                                               ; preds = %11
  %16 = load ptr, ptr %4, align 8
  %17 = load i32, ptr %5, align 4
  call void @_ZNK5clang23OMPUsesAllocatorsClause16getAllocatorDataEj(ptr dead_on_unwind writable sret(%"struct.clang::OMPUsesAllocatorsClause::Data") align 8 %7, ptr noundef nonnull align 8 dereferenceable(24) %16, i32 noundef %17)
  %18 = getelementptr inbounds nuw %"class.(anonymous namespace)::OMPClauseProfiler", ptr %8, i32 0, i32 0
  %19 = load ptr, ptr %18, align 8
  %20 = getelementptr inbounds nuw %"struct.clang::OMPUsesAllocatorsClause::Data", ptr %7, i32 0, i32 0
  %21 = load ptr, ptr %20, align 8
  call void @_ZN12_GLOBAL__N_112StmtProfiler9VisitStmtEPKN5clang4StmtE(ptr noundef nonnull align 8 dereferenceable(18) %19, ptr noundef %21)
  %22 = getelementptr inbounds nuw %"struct.clang::OMPUsesAllocatorsClause::Data", ptr %7, i32 0, i32 1
  %23 = load ptr, ptr %22, align 8
  %24 = icmp ne ptr %23, null
  br i1 %24, label %25, label %30

25:                                               ; preds = %15
  %26 = getelementptr inbounds nuw %"class.(anonymous namespace)::OMPClauseProfiler", ptr %8, i32 0, i32 0
  %27 = load ptr, ptr %26, align 8
  %28 = getelementptr inbounds nuw %"struct.clang::OMPUsesAllocatorsClause::Data", ptr %7, i32 0, i32 1
  %29 = load ptr, ptr %28, align 8
  call void @_ZN12_GLOBAL__N_112StmtProfiler9VisitStmtEPKN5clang4StmtE(ptr noundef nonnull align 8 dereferenceable(18) %27, ptr noundef %29)
  br label %30

30:                                               ; preds = %25, %15
  br label %31

31:                                               ; preds = %30
  %32 = load i32, ptr %5, align 4
  %33 = add i32 %32, 1
  store i32 %33, ptr %5, align 4
  br label %11, !llvm.loop !18

34:                                               ; preds = %11
  ret void
}