; Function Attrs: mustprogress nounwind uwtable
define internal fastcc void @_ZN12_GLOBAL__N_117OMPClauseProfiler28VisitOMPUsesAllocatorsClauseEPKN5clang23OMPUsesAllocatorsClauseE(ptr noundef nonnull readonly align 8 captures(none) dereferenceable(8) %0, ptr noundef nonnull %1) unnamed_addr #0 align 2 {
  %3 = alloca %"struct.clang::OMPUsesAllocatorsClause::Data", align 8
  %4 = getelementptr inbounds nuw i8, ptr %1, i64 16
  %5 = load i32, ptr %4, align 8
  %.not8 = icmp eq i32 %5, 0
  br i1 %.not8, label %._crit_edge, label %.lr.ph

.lr.ph:                                           ; preds = %2
  %6 = getelementptr inbounds nuw i8, ptr %3, i64 8
  br label %7

7:                                                ; preds = %.lr.ph, %13
  %.07 = phi i32 [ 0, %.lr.ph ], [ %14, %13 ]
  call void @_ZNK5clang23OMPUsesAllocatorsClause16getAllocatorDataEj(ptr dead_on_unwind nonnull writable sret(%"struct.clang::OMPUsesAllocatorsClause::Data") align 8 %3, ptr noundef nonnull align 8 dereferenceable(24) %1, i32 noundef %.07) #11
  %8 = load ptr, ptr %0, align 8
  %9 = load ptr, ptr %3, align 8
  call fastcc void @_ZN12_GLOBAL__N_112StmtProfiler9VisitStmtEPKN5clang4StmtE(ptr noundef nonnull align 8 dereferenceable(18) %8, ptr noundef %9)
  %10 = load ptr, ptr %6, align 8
  %.not = icmp eq ptr %10, null
  br i1 %.not, label %13, label %11

11:                                               ; preds = %7
  %12 = load ptr, ptr %0, align 8
  call fastcc void @_ZN12_GLOBAL__N_112StmtProfiler9VisitStmtEPKN5clang4StmtE(ptr noundef nonnull align 8 dereferenceable(18) %12, ptr noundef nonnull %10)
  br label %13

13:                                               ; preds = %7, %11
  %14 = add nuw i32 %.07, 1
  %exitcond.not = icmp eq i32 %14, %5
  br i1 %exitcond.not, label %._crit_edge, label %7, !llvm.loop !54

._crit_edge:                                      ; preds = %13, %2
  ret void
}